; Function Attrs: null_pointer_is_valid sspstrong uwtable
define internal fastcc void @dissect_bthci_evt_flow_spec_modify_complete(ptr noundef %0, ptr noundef %1, ptr noundef %2, ptr noundef nonnull readonly captures(none) %3) unnamed_addr #1 {
  %5 = load i32, ptr @hf_bthci_evt_status, align 4
  %6 = tail call ptr @proto_tree_add_item(ptr noundef %2, i32 noundef %5, ptr noundef %0, i32 noundef 2, i32 noundef 1, i32 noundef -2147483648)
  %7 = tail call zeroext i8 @tvb_get_uint8(ptr noundef %0, i32 noundef 2)
  %8 = load i32, ptr @bluetooth_hci_summary_tap, align 4
  %9 = tail call zeroext i1 @have_tap_listener(i32 noundef %8)
  br i1 %9, label %10, label %send_hci_summary_status_tap.exit

10:                                               ; preds = %4
  %11 = getelementptr inbounds nuw i8, ptr %1, i64 408
  %12 = load ptr, ptr %11, align 8
  %13 = tail call noalias dereferenceable_or_null(32) ptr @wmem_alloc(ptr noundef %12, i64 noundef 32) #11
  %14 = load i32, ptr %3, align 8
  store i32 %14, ptr %13, align 8
  %15 = getelementptr inbounds nuw i8, ptr %3, i64 4
  %16 = load i32, ptr %15, align 4
  %17 = getelementptr inbounds nuw i8, ptr %13, i64 4
  store i32 %16, ptr %17, align 4
  %18 = getelementptr inbounds nuw i8, ptr %13, i64 24
  store i32 7, ptr %18, align 8
  %19 = getelementptr inbounds nuw i8, ptr %13, i64 13
  store i8 %7, ptr %19, align 1
  %20 = zext i8 %7 to i32
  %21 = tail call ptr @try_val_to_str_ext(i32 noundef %20, ptr noundef nonnull @bthci_cmd_status_vals_ext)
  %.not.i = icmp eq ptr %21, null
  br i1 %.not.i, label %24, label %22

22:                                               ; preds = %10
  %23 = tail call ptr @val_to_str_ext(i32 noundef %20, ptr noundef nonnull @bthci_cmd_status_vals_ext, ptr noundef nonnull @.str.1819)
  br label %24

24:                                               ; preds = %22, %10
  %.sink.i = phi ptr [ %23, %22 ], [ null, %10 ]
  %25 = getelementptr inbounds nuw i8, ptr %13, i64 16
  store ptr %.sink.i, ptr %25, align 8
  %26 = load i32, ptr @bluetooth_hci_summary_tap, align 4
  tail call void @tap_queue_packet(i32 noundef %26, ptr noundef %1, ptr noundef %13)
  br label %send_hci_summary_status_tap.exit

send_hci_summary_status_tap.exit:                 ; preds = %4, %24
  %27 = load i32, ptr @hf_bthci_evt_connection_handle, align 4
  %28 = tail call ptr @proto_tree_add_item(ptr noundef %2, i32 noundef %27, ptr noundef %0, i32 noundef 3, i32 noundef 2, i32 noundef -2147483648)
  ret void
}